; Function Attrs: nounwind uwtable
define void @Ssw_SmlAddPatternDyn(ptr noundef readonly captures(none) %0) local_unnamed_addr #0 {
  %2 = getelementptr inbounds nuw i8, ptr %0, i64 64
  %3 = load ptr, ptr %2, align 8
  %4 = getelementptr inbounds nuw i8, ptr %3, i64 48
  %5 = load ptr, ptr %4, align 8
  %6 = getelementptr i8, ptr %5, i64 4
  %.val1618 = load i32, ptr %6, align 4
  %7 = icmp sgt i32 %.val1618, 0
  br i1 %7, label %.lr.ph, label %.critedge

.lr.ph:                                           ; preds = %1
  %8 = getelementptr inbounds nuw i8, ptr %0, i64 72
  %9 = getelementptr inbounds nuw i8, ptr %0, i64 80
  br label %10

10:                                               ; preds = %.lr.ph, %40
  %indvars.iv = phi i64 [ 0, %.lr.ph ], [ %indvars.iv.next, %40 ]
  %11 = phi ptr [ %5, %.lr.ph ], [ %43, %40 ]
  %12 = phi ptr [ %3, %.lr.ph ], [ %41, %40 ]
  %13 = getelementptr i8, ptr %11, i64 8
  %.val15 = load ptr, ptr %13, align 8
  %14 = getelementptr inbounds nuw ptr, ptr %.val15, i64 %indvars.iv
  %15 = load ptr, ptr %14, align 8
  %16 = getelementptr i8, ptr %12, i64 32
  %.val = load ptr, ptr %16, align 8
  %17 = getelementptr i8, ptr %15, i64 36
  %.val12 = load i32, ptr %17, align 4
  %18 = tail call fastcc i32 @Ssw_ObjSatNum(ptr %.val, i32 %.val12)
  %19 = load ptr, ptr %2, align 8
  %20 = getelementptr inbounds nuw i8, ptr %19, i64 16
  %21 = load ptr, ptr %20, align 8
  %22 = getelementptr i8, ptr %21, i64 328
  %.val13 = load ptr, ptr %22, align 8
  %23 = sext i32 %18 to i64
  %24 = getelementptr inbounds i32, ptr %.val13, i64 %23
  %25 = load i32, ptr %24, align 4
  %.not = icmp eq i32 %25, 1
  br i1 %.not, label %26, label %40

26:                                               ; preds = %10
  %27 = load ptr, ptr %8, align 8
  %.val17 = load i32, ptr %15, align 8
  %28 = getelementptr i8, ptr %27, i64 8
  %.val14 = load ptr, ptr %28, align 8
  %29 = sext i32 %.val17 to i64
  %30 = getelementptr inbounds ptr, ptr %.val14, i64 %29
  %31 = load ptr, ptr %30, align 8
  %32 = load i32, ptr %9, align 8
  %33 = and i32 %32, 31
  %34 = shl nuw i32 1, %33
  %35 = ashr i32 %32, 5
  %36 = sext i32 %35 to i64
  %37 = getelementptr inbounds i32, ptr %31, i64 %36
  %38 = load i32, ptr %37, align 4
  %39 = or i32 %34, %38
  store i32 %39, ptr %37, align 4
  %.pre = load ptr, ptr %2, align 8
  br label %40

40:                                               ; preds = %10, %26
  %41 = phi ptr [ %19, %10 ], [ %.pre, %26 ]
  %indvars.iv.next = add nuw nsw i64 %indvars.iv, 1
  %42 = getelementptr inbounds nuw i8, ptr %41, i64 48
  %43 = load ptr, ptr %42, align 8
  %44 = getelementptr i8, ptr %43, i64 4
  %.val16 = load i32, ptr %44, align 4
  %45 = sext i32 %.val16 to i64
  %46 = icmp slt i64 %indvars.iv.next, %45
  br i1 %46, label %10, label %.critedge, !llvm.loop !9

.critedge:                                        ; preds = %40, %1
  ret void
}